target datalayout = "e-m:e-p270:32:32-p271:32:32-p272:64:64-i64:64-i128:128-f80:128-n8:16:32:64-S128"
target triple = "x86_64-pc-linux-gnu"

%struct.opj_codec_private = type { %union.anon, ptr, %struct.opj_event_mgr, i32, ptr, ptr, ptr, ptr }
%union.anon = type { %struct.opj_decompression }
%struct.opj_decompression = type { ptr, ptr, ptr, ptr, ptr, ptr, ptr, ptr, ptr, ptr, ptr, ptr }
%struct.opj_event_mgr = type { ptr, ptr, ptr, ptr, ptr, ptr }
%struct.opj_compression = type { ptr, ptr, ptr, ptr, ptr, ptr, ptr }

; Function Attrs: nounwind uwtable
define hidden i32 @opj_setup_encoder(ptr noundef %0, ptr noundef %1, ptr noundef %2) #0 {
  %4 = alloca i32, align 4
  %5 = alloca ptr, align 8
  %6 = alloca ptr, align 8
  %7 = alloca ptr, align 8
  %8 = alloca ptr, align 8
  %9 = alloca i32, align 4
  store ptr %0, ptr %5, align 8, !tbaa !3
  store ptr %1, ptr %6, align 8, !tbaa !46
  store ptr %2, ptr %7, align 8, !tbaa !42
  %10 = load ptr, ptr %5, align 8, !tbaa !3
  %11 = icmp ne ptr %10, null
  br i1 %11, label %12, label %41

12:                                               ; preds = %3
  %13 = load ptr, ptr %6, align 8, !tbaa !46
  %14 = icmp ne ptr %13, null
  br i1 %14, label %15, label %41

15:                                               ; preds = %12
  %16 = load ptr, ptr %7, align 8, !tbaa !42
  %17 = icmp ne ptr %16, null
  br i1 %17, label %18, label %41

18:                                               ; preds = %15
  call void @llvm.lifetime.start.p0(i64 8, ptr %8) #5
  %19 = load ptr, ptr %5, align 8, !tbaa !3
  store ptr %19, ptr %8, align 8, !tbaa !9
  %20 = load ptr, ptr %8, align 8, !tbaa !9
  %21 = getelementptr inbounds nuw %struct.opj_codec_private, ptr %20, i32 0, i32 3
  %22 = load i32, ptr %21, align 8, !tbaa !21
  %23 = icmp ne i32 %22, 0
  br i1 %23, label %37, label %24

24:                                               ; preds = %18
  %25 = load ptr, ptr %8, align 8, !tbaa !9
  %26 = getelementptr inbounds nuw %struct.opj_codec_private, ptr %25, i32 0, i32 0
  %27 = getelementptr inbounds nuw %struct.opj_compression, ptr %26, i32 0, i32 5
  %28 = load ptr, ptr %27, align 8, !tbaa !25
  %29 = load ptr, ptr %8, align 8, !tbaa !9
  %30 = getelementptr inbounds nuw %struct.opj_codec_private, ptr %29, i32 0, i32 1
  %31 = load ptr, ptr %30, align 8, !tbaa !27
  %32 = load ptr, ptr %6, align 8, !tbaa !46
  %33 = load ptr, ptr %7, align 8, !tbaa !42
  %34 = load ptr, ptr %8, align 8, !tbaa !9
  %35 = getelementptr inbounds nuw %struct.opj_codec_private, ptr %34, i32 0, i32 2
  %36 = call i32 %28(ptr noundef %31, ptr noundef %32, ptr noundef %33, ptr noundef %35)
  store i32 %36, ptr %4, align 4
  store i32 1, ptr %9, align 4
  br label %38

37:                                               ; preds = %18
  store i32 0, ptr %9, align 4
  br label %38

38:                                               ; preds = %37, %24
  call void @llvm.lifetime.end.p0(i64 8, ptr %8) #5
  %39 = load i32, ptr %9, align 4
  switch i32 %39, label %44 [
    i32 0, label %40
    i32 1, label %42
  ]

40:                                               ; preds = %38
  br label %41

41:                                               ; preds = %40, %15, %12, %3
  store i32 0, ptr %4, align 4
  br label %42

42:                                               ; preds = %41, %38
  %43 = load i32, ptr %4, align 4
  ret i32 %43

44:                                               ; preds = %38
  unreachable
}