; Function Attrs: nounwind uwtable
define hidden i32 @opj_setup_encoder(ptr noundef %0, ptr noundef %1, ptr noundef %2) local_unnamed_addr #2 {
  %4 = icmp ne ptr %0, null
  %5 = icmp ne ptr %1, null
  %or.cond = and i1 %4, %5
  %6 = icmp ne ptr %2, null
  %or.cond3 = and i1 %or.cond, %6
  br i1 %or.cond3, label %7, label %.thread

7:                                                ; preds = %3
  %8 = getelementptr inbounds nuw i8, ptr %0, i64 152
  %9 = load i32, ptr %8, align 8, !tbaa !15
  %.not = icmp eq i32 %9, 0
  br i1 %.not, label %10, label %.thread

10:                                               ; preds = %7
  %11 = getelementptr inbounds nuw i8, ptr %0, i64 40
  %12 = load ptr, ptr %11, align 8, !tbaa !19
  %13 = getelementptr inbounds nuw i8, ptr %0, i64 96
  %14 = load ptr, ptr %13, align 8, !tbaa !21
  %15 = getelementptr inbounds nuw i8, ptr %0, i64 104
  %16 = tail call i32 %12(ptr noundef %14, ptr noundef nonnull %1, ptr noundef nonnull %2, ptr noundef nonnull %15) #8
  br label %.thread

.thread:                                          ; preds = %7, %3, %10
  %.1 = phi i32 [ %16, %10 ], [ 0, %3 ], [ 0, %7 ]
  ret i32 %.1
}